(dp0
S'customer1'
p1
(dp2
S'y'
p3
I-1
sS'x'
p4
F-1.5
sS'z'
p5
F0.7
ssS'crazyflie3_takeoff'
p6
(dp7
g3
I1
sg4
F0.5
sg5
I1
ssS'customer3'
p8
(dp9
g3
F1.3
sg4
F-1.5
sg5
F0.7
ssS'customer2'
p10
(dp11
g3
F-1.5
sg4
F1.4
sg5
F0.7
ssS'warehouse1'
p12
(dp13
g3
I1
sg4
I1
sg5
I1
ssS'warehouse2'
p14
(dp15
g3
F0.5
sg4
F1.5
sg5
I1
ssS'crazyflie2_takeoff'
p16
(dp17
g3
I0
sg4
I1
sg5
I1
ssS'crazyflie1_takeoff'
p18
(dp19
g3
I0
sg4
I0
sg5
I1
ss.