(dp0
S'crazyflie3_takeoff'
p1
(dp2
S'y'
p3
I1
sS'x'
p4
F0.5
sS'z'
p5
I1
ssS'crazyflie5_takeoff'
p6
(dp7
g3
I0
sg4
I0
sg5
I1
ssS'crazyflie2_takeoff'
p8
(dp9
g3
I0
sg4
I1
sg5
I1
ssS'area4'
p10
(dp11
g3
F1.254
sg4
F-0.376
sg5
I1
ssS'area1'
p12
(dp13
g3
F0.1395
sg4
F0.551
sg5
I1
ssS'area2'
p14
(dp15
g3
F1.121
sg4
F1.471
sg5
I1
ssS'area3'
p16
(dp17
g3
F1.178
sg4
F0.633
sg5
I1
ssS'rz4'
p18
(dp19
g3
F0.263
sg4
F-1.217
sg5
F1.0
ssS'rz3'
p20
(dp21
g3
F-0.923
sg4
F-1.607
sg5
F0.7
ssS'rz2'
p22
(dp23
g3
F-1.639
sg4
F-0.223
sg5
F0.7
ssS'rz1'
p24
(dp25
g3
F-1.1
sg4
F0.993
sg5
F0.7
ssS'crazyflie4_takeoff'
p26
(dp27
g3
I1
sg4
F-0.5
sg5
I1
ss.