(dp0
S'customer1'
p1
(dp2
S'y'
p3
F-0.5
sS'x'
p4
F-0.5
sS'z'
p5
F0.7
ssS'warehouse1'
p6
(dp7
g3
I-1
sg4
I-1
sg5
I1
ssS'drone3_takeoff'
p8
(dp9
g3
I-1
sg4
I-1
sg5
I1
ssS'warehouse2'
p10
(dp11
g3
F0.5
sg4
I1
sg5
I1
ssS'crazyflie6_takeoff'
p12
(dp13
g3
I0
sg4
I-1
sg5
I1
ssS'crazyflie5_takeoff'
p14
(dp15
g3
I0
sg4
I0
sg5
I1
ssS'customer3'
p16
(dp17
g3
F-0.5
sg4
I-1
sg5
F0.7
ssS'customer2'
p18
(dp19
g3
I1
sg4
I-1
sg5
F0.7
ss.