(dp0
S'customer1'
p1
(dp2
S'y'
p3
I-1
sS'x'
p4
I-2
sS'z'
p5
I1
ssS'drone3_takeoff'
p6
(dp7
g3
I-1
sg4
I-1
sg5
I1
ssS'customer2'
p8
(dp9
g3
I-2
sg4
I-1
sg5
I1
ssS'drone1_takeoff'
p10
(dp11
g3
I0
sg4
I0
sg5
I1
ssS'drone2_takeoff'
p12
(dp13
g3
I0
sg4
I-1
sg5
I1
ssS'warehouse1'
p14
(dp15
g3
I-3
sg4
I-3
sg5
I1
ssS'warehouse2'
p16
(dp17
g3
I3
sg4
I-3
sg5
I1
ssS'customer3'
p18
(dp19
g3
I-2
sg4
I-2
sg5
I1
ss.