(dp0
S'crazyflie3_takeoff'
p1
(dp2
S'y'
p3
I1
sS'x'
p4
F0.5
sS'z'
p5
I1
ssS'crazyflie2_takeoff'
p6
(dp7
g3
I0
sg4
I1
sg5
I1
ssS'area4'
p8
(dp9
g3
F0.5
sg4
F0.5
sg5
I1
ssS'area1'
p10
(dp11
g3
I1
sg4
F-0.7
sg5
I1
ssS'area2'
p12
(dp13
g3
F0.8
sg4
F1.5
sg5
I1
ssS'area3'
p14
(dp15
g3
F0.9
sg4
F0.65
sg5
I1
ssS'crazyflie1_takeoff'
p16
(dp17
g3
I0
sg4
I0
sg5
I1
ssS'rz4'
p18
(dp19
g3
F0.0
sg4
F0.0
sg5
F1.0
ssS'rz3'
p20
(dp21
g3
F1.3
sg4
F-1.5
sg5
F0.7
ssS'rz2'
p22
(dp23
g3
F-1.5
sg4
F1.4
sg5
F0.7
ssS'rz1'
p24
(dp25
g3
I-1
sg4
F-1.5
sg5
F0.7
ss.